target datalayout = "e-m:e-p270:32:32-p271:32:32-p272:64:64-i64:64-i128:128-f80:128-n8:16:32:64-S128"
target triple = "x86_64-pc-linux-gnu"

%struct.Vec_Str_t_ = type { i32, i32, ptr }

@.str.47 = private unnamed_addr constant [4 x i8] c"%u \00", align 1

; Function Attrs: nounwind uwtable
define internal void @Vec_StrFree(ptr noundef %0) #0 {
  %2 = alloca ptr, align 8
  store ptr %0, ptr %2, align 8
  %3 = load ptr, ptr %2, align 8
  %4 = getelementptr inbounds %struct.Vec_Str_t_, ptr %3, i32 0, i32 2
  %5 = load ptr, ptr %4, align 8
  %6 = icmp ne ptr %5, null
  br i1 %6, label %7, label %13

7:                                                ; preds = %1
  %8 = load ptr, ptr %2, align 8
  %9 = getelementptr inbounds %struct.Vec_Str_t_, ptr %8, i32 0, i32 2
  %10 = load ptr, ptr %9, align 8
  call void @free(ptr noundef %10) #10
  %11 = load ptr, ptr %2, align 8
  %12 = getelementptr inbounds %struct.Vec_Str_t_, ptr %11, i32 0, i32 2
  store ptr null, ptr %12, align 8
  br label %14

13:                                               ; preds = %1
  br label %14

14:                                               ; preds = %13, %7
  %15 = load ptr, ptr %2, align 8
  %16 = icmp ne ptr %15, null
  br i1 %16, label %17, label %19

17:                                               ; preds = %14
  %18 = load ptr, ptr %2, align 8
  call void @free(ptr noundef %18) #10
  store ptr null, ptr %2, align 8
  br label %20

19:                                               ; preds = %14
  br label %20

20:                                               ; preds = %19, %17
  ret void
}

; Function Attrs: nounwind uwtable
define internal i32 @textToBin(ptr noundef %0, i64 noundef %1) #0 {
  %3 = alloca ptr, align 8
  %4 = alloca i64, align 8
  %5 = alloca ptr, align 8
  %6 = alloca ptr, align 8
  %7 = alloca i32, align 4
  %8 = alloca i32, align 4
  store ptr %0, ptr %3, align 8
  store i64 %1, ptr %4, align 8
  %9 = load ptr, ptr %3, align 8
  store ptr %9, ptr %5, align 8
  %10 = load ptr, ptr %3, align 8
  store ptr %10, ptr %6, align 8
  %11 = load ptr, ptr %6, align 8
  %12 = call i32 (ptr, ptr, ...) @__isoc99_sscanf(ptr noundef %11, ptr noundef @.str.47, ptr noundef %7) #10
  br label %13

13:                                               ; preds = %19, %2
  %14 = load ptr, ptr %6, align 8
  %15 = getelementptr inbounds i8, ptr %14, i32 1
  store ptr %15, ptr %6, align 8
  %16 = load i8, ptr %14, align 1
  %17 = sext i8 %16 to i32
  %18 = icmp ne i32 %17, 32
  br i1 %18, label %19, label %20

19:                                               ; preds = %13
  br label %13, !llvm.loop !12

20:                                               ; preds = %13
  store i32 0, ptr %8, align 4
  br label %21

21:                                               ; preds = %83, %20
  %22 = load i32, ptr %8, align 4
  %23 = load i32, ptr %7, align 4
  %24 = icmp ult i32 %22, %23
  br i1 %24, label %25, label %86

25:                                               ; preds = %21
  %26 = load ptr, ptr %6, align 8
  %27 = getelementptr inbounds i8, ptr %26, i64 0
  %28 = load i8, ptr %27, align 1
  %29 = sext i8 %28 to i32
  %30 = sub i32 %29, 48
  %31 = trunc i32 %30 to i8
  %32 = sext i8 %31 to i32
  %33 = load ptr, ptr %6, align 8
  %34 = getelementptr inbounds i8, ptr %33, i64 1
  %35 = load i8, ptr %34, align 1
  %36 = sext i8 %35 to i32
  %37 = sub i32 %36, 48
  %38 = shl i32 %37, 6
  %39 = or i32 %32, %38
  %40 = trunc i32 %39 to i8
  %41 = load ptr, ptr %5, align 8
  %42 = getelementptr inbounds i8, ptr %41, i64 0
  store i8 %40, ptr %42, align 1
  %43 = load ptr, ptr %6, align 8
  %44 = getelementptr inbounds i8, ptr %43, i64 1
  %45 = load i8, ptr %44, align 1
  %46 = sext i8 %45 to i32
  %47 = sub i32 %46, 48
  %48 = lshr i32 %47, 2
  %49 = trunc i32 %48 to i8
  %50 = sext i8 %49 to i32
  %51 = load ptr, ptr %6, align 8
  %52 = getelementptr inbounds i8, ptr %51, i64 2
  %53 = load i8, ptr %52, align 1
  %54 = sext i8 %53 to i32
  %55 = sub i32 %54, 48
  %56 = shl i32 %55, 4
  %57 = or i32 %50, %56
  %58 = trunc i32 %57 to i8
  %59 = load ptr, ptr %5, align 8
  %60 = getelementptr inbounds i8, ptr %59, i64 1
  store i8 %58, ptr %60, align 1
  %61 = load ptr, ptr %6, align 8
  %62 = getelementptr inbounds i8, ptr %61, i64 2
  %63 = load i8, ptr %62, align 1
  %64 = sext i8 %63 to i32
  %65 = sub i32 %64, 48
  %66 = lshr i32 %65, 4
  %67 = trunc i32 %66 to i8
  %68 = sext i8 %67 to i32
  %69 = load ptr, ptr %6, align 8
  %70 = getelementptr inbounds i8, ptr %69, i64 3
  %71 = load i8, ptr %70, align 1
  %72 = sext i8 %71 to i32
  %73 = sub i32 %72, 48
  %74 = shl i32 %73, 2
  %75 = or i32 %68, %74
  %76 = trunc i32 %75 to i8
  %77 = load ptr, ptr %5, align 8
  %78 = getelementptr inbounds i8, ptr %77, i64 2
  store i8 %76, ptr %78, align 1
  %79 = load ptr, ptr %6, align 8
  %80 = getelementptr inbounds i8, ptr %79, i64 4
  store ptr %80, ptr %6, align 8
  %81 = load ptr, ptr %5, align 8
  %82 = getelementptr inbounds i8, ptr %81, i64 3
  store ptr %82, ptr %5, align 8
  br label %83

83:                                               ; preds = %25
  %84 = load i32, ptr %8, align 4
  %85 = add i32 %84, 3
  store i32 %85, ptr %8, align 4
  br label %21, !llvm.loop !13

86:                                               ; preds = %21
  %87 = load i32, ptr %7, align 4
  ret i32 %87
}

; Function Attrs: nounwind uwtable
define internal ptr @Vec_StrArray(ptr noundef %0) #0 {
  %2 = alloca ptr, align 8
  store ptr %0, ptr %2, align 8
  %3 = load ptr, ptr %2, align 8
  %4 = getelementptr inbounds %struct.Vec_Str_t_, ptr %3, i32 0, i32 2
  %5 = load ptr, ptr %4, align 8
  ret ptr %5
}

; Function Attrs: nounwind uwtable
define ptr @Abc_ManReadAig(ptr noundef %0, ptr noundef %1) #0 {
  %3 = alloca ptr, align 8
  %4 = alloca ptr, align 8
  %5 = alloca ptr, align 8
  %6 = alloca ptr, align 8
  %7 = alloca i32, align 4
  %8 = alloca ptr, align 8
  %9 = alloca ptr, align 8
  %10 = alloca ptr, align 8
  store ptr %0, ptr %4, align 8
  store ptr %1, ptr %5, align 8
  store ptr null, ptr %6, align 8
  %11 = load ptr, ptr %4, align 8
  %12 = call ptr @Abc_ManReadFile(ptr noundef %11)
  store ptr %12, ptr %8, align 8
  %13 = load ptr, ptr %8, align 8
  %14 = icmp eq ptr %13, null
  br i1 %14, label %15, label %16

15:                                               ; preds = %2
  store ptr null, ptr %3, align 8
  br label %70

16:                                               ; preds = %2
  %17 = load ptr, ptr %8, align 8
  %18 = call ptr @Vec_StrArray(ptr noundef %17)
  store ptr %18, ptr %9, align 8
  %19 = load ptr, ptr %9, align 8
  %20 = load ptr, ptr %5, align 8
  %21 = call ptr @strstr(ptr noundef %19, ptr noundef %20) #8
  store ptr %21, ptr %9, align 8
  %22 = load ptr, ptr %9, align 8
  %23 = icmp ne ptr %22, null
  br i1 %23, label %24, label %67

24:                                               ; preds = %16
  %25 = load ptr, ptr %5, align 8
  %26 = call i64 @strlen(ptr noundef %25) #8
  %27 = load ptr, ptr %9, align 8
  %28 = getelementptr inbounds i8, ptr %27, i64 %26
  store ptr %28, ptr %9, align 8
  br label %29

29:                                               ; preds = %34, %24
  %30 = load ptr, ptr %9, align 8
  %31 = load i8, ptr %30, align 1
  %32 = sext i8 %31 to i32
  %33 = icmp eq i32 %32, 32
  br i1 %33, label %34, label %37

34:                                               ; preds = %29
  %35 = load ptr, ptr %9, align 8
  %36 = getelementptr inbounds i8, ptr %35, i32 1
  store ptr %36, ptr %9, align 8
  br label %29, !llvm.loop !10

37:                                               ; preds = %29
  %38 = load ptr, ptr %9, align 8
  store ptr %38, ptr %10, align 8
  br label %39

39:                                               ; preds = %56, %37
  %40 = load ptr, ptr %10, align 8
  %41 = load i8, ptr %40, align 1
  %42 = icmp ne i8 %41, 0
  br i1 %42, label %43, label %59

43:                                               ; preds = %39
  %44 = load ptr, ptr %10, align 8
  %45 = load i8, ptr %44, align 1
  %46 = sext i8 %45 to i32
  %47 = icmp eq i32 %46, 13
  br i1 %47, label %53, label %48

48:                                               ; preds = %43
  %49 = load ptr, ptr %10, align 8
  %50 = load i8, ptr %49, align 1
  %51 = sext i8 %50 to i32
  %52 = icmp eq i32 %51, 10
  br i1 %52, label %53, label %55

53:                                               ; preds = %48, %43
  %54 = load ptr, ptr %10, align 8
  store i8 0, ptr %54, align 1
  br label %59

55:                                               ; preds = %48
  br label %56

56:                                               ; preds = %55
  %57 = load ptr, ptr %10, align 8
  %58 = getelementptr inbounds i8, ptr %57, i32 1
  store ptr %58, ptr %10, align 8
  br label %39, !llvm.loop !11

59:                                               ; preds = %53, %39
  %60 = load ptr, ptr %9, align 8
  %61 = load ptr, ptr %9, align 8
  %62 = call i64 @strlen(ptr noundef %61) #8
  %63 = call i32 @textToBin(ptr noundef %60, i64 noundef %62)
  store i32 %63, ptr %7, align 4
  %64 = load ptr, ptr %9, align 8
  %65 = load i32, ptr %7, align 4
  %66 = call ptr @Gia_AigerReadFromMemory(ptr noundef %64, i32 noundef %65, i32 noundef 0, i32 noundef 0, i32 noundef 0)
  store ptr %66, ptr %6, align 8
  br label %67

67:                                               ; preds = %59, %16
  %68 = load ptr, ptr %8, align 8
  call void @Vec_StrFree(ptr noundef %68)
  %69 = load ptr, ptr %6, align 8
  store ptr %69, ptr %3, align 8
  br label %70

70:                                               ; preds = %67, %15
  %71 = load ptr, ptr %3, align 8
  ret ptr %71
}