; Function Attrs: nounwind uwtable
define ptr @Abc_ManReadAig(ptr noundef %0, ptr noundef readonly captures(none) %1) local_unnamed_addr #2 {
  %3 = alloca i32, align 4
  %4 = tail call ptr @Abc_ManReadFile(ptr noundef %0)
  %5 = icmp eq ptr %4, null
  br i1 %5, label %59, label %6

6:                                                ; preds = %2
  %7 = getelementptr i8, ptr %4, i64 8
  %.val = load ptr, ptr %7, align 8
  %8 = tail call ptr @strstr(ptr noundef nonnull dereferenceable(1) %.val, ptr noundef nonnull dereferenceable(1) %1) #13
  %.not = icmp eq ptr %8, null
  br i1 %.not, label %Vec_StrFree.exit, label %9

9:                                                ; preds = %6
  %10 = tail call i64 @strlen(ptr noundef nonnull dereferenceable(1) %1) #13
  %11 = getelementptr inbounds i8, ptr %8, i64 %10
  br label %12

12:                                               ; preds = %12, %9
  %.022 = phi ptr [ %11, %9 ], [ %15, %12 ]
  %13 = load i8, ptr %.022, align 1
  %14 = icmp eq i8 %13, 32
  %15 = getelementptr inbounds nuw i8, ptr %.022, i64 1
  br i1 %14, label %12, label %.preheader, !llvm.loop !10

.preheader:                                       ; preds = %12, %18
  %16 = phi i8 [ %.pr, %18 ], [ %13, %12 ]
  %.0 = phi ptr [ %19, %18 ], [ %.022, %12 ]
  switch i8 %16, label %18 [
    i8 0, label %.loopexit
    i8 13, label %17
    i8 10, label %17
  ]

17:                                               ; preds = %.preheader, %.preheader
  store i8 0, ptr %.0, align 1
  br label %.loopexit

18:                                               ; preds = %.preheader
  %19 = getelementptr inbounds nuw i8, ptr %.0, i64 1
  %.pr = load i8, ptr %19, align 1
  br label %.preheader, !llvm.loop !11

.loopexit:                                        ; preds = %.preheader, %17
  call void @llvm.lifetime.start.p0(i64 4, ptr nonnull %3)
  %20 = call i32 (ptr, ptr, ...) @__isoc99_sscanf(ptr noundef nonnull %.022, ptr noundef nonnull @.str.47, ptr noundef nonnull %3) #16
  br label %21

21:                                               ; preds = %21, %.loopexit
  %.016.i = phi ptr [ %.022, %.loopexit ], [ %22, %21 ]
  %22 = getelementptr inbounds nuw i8, ptr %.016.i, i64 1
  %23 = load i8, ptr %.016.i, align 1
  %.not.i = icmp eq i8 %23, 32
  br i1 %.not.i, label %.preheader.i, label %21, !llvm.loop !12

.preheader.i:                                     ; preds = %21
  %24 = load i32, ptr %3, align 4
  %.not24.i = icmp eq i32 %24, 0
  br i1 %.not24.i, label %textToBin.exit, label %.lr.ph.i

.lr.ph.i:                                         ; preds = %.preheader.i, %.lr.ph.i
  %.023.i = phi i32 [ %56, %.lr.ph.i ], [ 0, %.preheader.i ]
  %.122.i = phi ptr [ %54, %.lr.ph.i ], [ %22, %.preheader.i ]
  %.01721.i = phi ptr [ %55, %.lr.ph.i ], [ %.022, %.preheader.i ]
  %25 = load i8, ptr %.122.i, align 1
  %26 = add i8 %25, -48
  %27 = getelementptr inbounds nuw i8, ptr %.122.i, i64 1
  %28 = load i8, ptr %27, align 1
  %29 = shl i8 %28, 6
  %30 = or i8 %29, %26
  store i8 %30, ptr %.01721.i, align 1
  %31 = load i8, ptr %27, align 1
  %32 = sext i8 %31 to i32
  %33 = shl nsw i32 %32, 22
  %sext.i = add nsw i32 %33, -201326592
  %34 = lshr i32 %sext.i, 24
  %35 = getelementptr inbounds nuw i8, ptr %.122.i, i64 2
  %36 = load i8, ptr %35, align 1
  %37 = sext i8 %36 to i32
  %38 = shl nsw i32 %37, 4
  %39 = or i32 %34, %38
  %40 = trunc i32 %39 to i8
  %41 = getelementptr inbounds nuw i8, ptr %.01721.i, i64 1
  store i8 %40, ptr %41, align 1
  %42 = load i8, ptr %35, align 1
  %43 = sext i8 %42 to i32
  %44 = shl nsw i32 %43, 20
  %sext19.i = add nsw i32 %44, -50331648
  %45 = lshr i32 %sext19.i, 24
  %46 = getelementptr inbounds nuw i8, ptr %.122.i, i64 3
  %47 = load i8, ptr %46, align 1
  %48 = sext i8 %47 to i32
  %49 = shl nsw i32 %48, 2
  %50 = add nsw i32 %49, 64
  %51 = or i32 %45, %50
  %52 = trunc i32 %51 to i8
  %53 = getelementptr inbounds nuw i8, ptr %.01721.i, i64 2
  store i8 %52, ptr %53, align 1
  %54 = getelementptr inbounds nuw i8, ptr %.122.i, i64 4
  %55 = getelementptr inbounds nuw i8, ptr %.01721.i, i64 3
  %56 = add i32 %.023.i, 3
  %57 = icmp ult i32 %56, %24
  br i1 %57, label %.lr.ph.i, label %textToBin.exit, !llvm.loop !13

textToBin.exit:                                   ; preds = %.lr.ph.i, %.preheader.i
  call void @llvm.lifetime.end.p0(i64 4, ptr nonnull %3)
  %58 = call ptr @Gia_AigerReadFromMemory(ptr noundef nonnull %.022, i32 noundef %24, i32 noundef 0, i32 noundef 0, i32 noundef 0) #16
  br label %Vec_StrFree.exit

Vec_StrFree.exit:                                 ; preds = %textToBin.exit, %6
  %.024 = phi ptr [ %58, %textToBin.exit ], [ null, %6 ]
  call void @free(ptr noundef nonnull %.val) #16
  call void @free(ptr noundef nonnull %4) #16
  br label %59

59:                                               ; preds = %2, %Vec_StrFree.exit
  %.023 = phi ptr [ %.024, %Vec_StrFree.exit ], [ null, %2 ]
  ret ptr %.023
}